; Function Attrs: mustprogress nounwind uwtable
define hidden noundef ptr @_ZN8AddPNode21Ideal_base_and_offsetEP4NodeP11PhaseValuesRl(ptr nocapture noundef readonly %0, ptr noundef %1, ptr nocapture noundef nonnull writeonly align 8 dereferenceable(8) %2) local_unnamed_addr #0 align 2 {
  %4 = getelementptr inbounds i8, ptr %0, i64 44
  %5 = load i32, ptr %4, align 4
  %6 = and i32 %5, 1023
  %7 = icmp eq i32 %6, 512
  br i1 %7, label %8, label %_ZN11PhaseValues13find_long_conEP4Nodel.exit.thread

8:                                                ; preds = %3
  %9 = getelementptr inbounds i8, ptr %0, i64 8
  %10 = load ptr, ptr %9, align 8
  %11 = getelementptr inbounds i8, ptr %10, i64 8
  %12 = load ptr, ptr %11, align 8
  %13 = getelementptr inbounds i8, ptr %10, i64 16
  %14 = load ptr, ptr %13, align 8
  %15 = getelementptr inbounds i8, ptr %10, i64 24
  %16 = load ptr, ptr %15, align 8
  %17 = icmp eq ptr %12, %14
  br i1 %17, label %22, label %18

18:                                               ; preds = %8
  %19 = getelementptr inbounds i8, ptr %12, i64 16
  %20 = load ptr, ptr %19, align 8
  %21 = icmp eq ptr %20, null
  br i1 %21, label %22, label %_ZN11PhaseValues13find_long_conEP4Nodel.exit.thread

22:                                               ; preds = %18, %8
  %23 = tail call noundef ptr @_ZN11PhaseValues14find_long_typeEP4Node(ptr noundef nonnull align 8 dereferenceable(2400) %1, ptr noundef %16) #7
  %.not.i = icmp eq ptr %23, null
  br i1 %.not.i, label %_ZN11PhaseValues13find_long_conEP4Nodel.exit.thread, label %24

24:                                               ; preds = %22
  %25 = getelementptr inbounds i8, ptr %23, i64 24
  %26 = load i64, ptr %25, align 8
  %27 = getelementptr inbounds i8, ptr %23, i64 32
  %28 = load i64, ptr %27, align 8
  %29 = icmp ne i64 %26, %28
  %.not = icmp eq i64 %26, -2000000001
  %or.cond = or i1 %29, %.not
  br i1 %or.cond, label %_ZN11PhaseValues13find_long_conEP4Nodel.exit.thread, label %30

_ZN11PhaseValues13find_long_conEP4Nodel.exit.thread: ; preds = %24, %22, %18, %3
  br label %30

30:                                               ; preds = %24, %_ZN11PhaseValues13find_long_conEP4Nodel.exit.thread
  %storemerge = phi i64 [ -2000000001, %_ZN11PhaseValues13find_long_conEP4Nodel.exit.thread ], [ %26, %24 ]
  %.0 = phi ptr [ null, %_ZN11PhaseValues13find_long_conEP4Nodel.exit.thread ], [ %14, %24 ]
  store i64 %storemerge, ptr %2, align 8
  ret ptr %.0
}